(dp0
S'1323369606.57'
p1
ccopy_reg
_reconstructor
p2
(cmyPickle
MockLink
p3
c__builtin__
object
p4
Ntp5
Rp6
(dp7
S'stopRect'
p8
csip
_unpickle_type
p9
(S'PyQt4.QtCore'
p10
S'QRectF'
p11
(F0.0
F10.0
F9.0
F9.0
tp12
tp13
Rp14
sS'module'
p15
S'links'
p16
sS'element'
p17
S'Coax'
p18
sS'startElement'
p19
S'1323369601.9'
p20
sS'startRect'
p21
g9
(g10
S'QRectF'
p22
(F20.0
F10.0
F9.0
F9.0
tp23
tp24
Rp25
sS'line'
p26
g9
(g10
S'QLineF'
p27
(F306.0
F185.0
F448.0
F137.0
tp28
tp29
Rp30
sS'stopElement'
p31
S'1323369602.4'
p32
sbsS'1323369604.84'
p33
g2
(g3
g4
Ntp34
Rp35
(dp36
g8
g9
(g10
S'QRectF'
p37
(F0.0
F10.0
F9.0
F9.0
tp38
tp39
Rp40
sg15
g16
sg17
g18
sg19
S'1323369601.46'
p41
sg21
g9
(g10
S'QRectF'
p42
(F20.0
F10.0
F9.0
F9.0
tp43
tp44
Rp45
sg26
g9
(g10
S'QLineF'
p46
(F147.0
F141.0
F286.0
F185.0
tp47
tp48
Rp49
sg31
g20
sbsg41
g2
(cmyPickle
MockElement
p50
g4
Ntp51
Rp52
(dp53
S'connections'
p54
(dp55
S'J4'
p56
(lp57
NaNaNaNasS'J1'
p58
(lp59
NaNaNaNasS'J2'
p60
(lp61
g20
ag56
ag33
aS'P1'
p62
asS'J3'
p63
(lp64
NaNaNaNassS'position'
p65
g9
(g10
S'QPointF'
p66
(F136.8781316034363
F140.8781316034363
tp67
tp68
Rp69
sS'entries'
p70
(dp71
S'rd'
p72
S'xxx'
p73
sS'blockFromSearch'
p74
I00
sS'id'
p75
S'1323369601.46'
p76
ssg15
S'elements'
p77
sg17
S'Hybrid'
p78
sbsg20
g2
(g50
g4
Ntp79
Rp80
(dp81
g54
(dp82
g56
(lp83
g41
ag60
ag33
aS'P2'
p84
asg58
(lp85
NaNaNaNasg60
(lp86
g32
ag56
ag1
ag62
asg63
(lp87
NaNaNaNassg65
g9
(g10
S'QPointF'
p88
(F295.87813160343626
F184.8781316034363
tp89
tp90
Rp91
sg70
(dp92
S'rd'
p93
S'xxx'
p94
sS'blockFromSearch'
p95
I00
sS'id'
p96
S'1323369601.9'
p97
ssg15
g77
sg17
g78
sbsg32
g2
(g50
g4
Ntp98
Rp99
(dp100
g54
(dp101
g56
(lp102
g20
ag60
ag1
ag84
asg58
(lp103
NaNaNaNasg60
(lp104
NaNaNaNasg63
(lp105
NaNaNaNassg65
g9
(g10
S'QPointF'
p106
(F457.87813160343626
F136.8781316034363
tp107
tp108
Rp109
sg70
(dp110
S'rd'
p111
S'xxx'
p112
sS'id'
p113
g32
ssg15
g77
sg17
g78
sbs.