(dp0
S'1322552590.64'
p1
ccopy_reg
_reconstructor
p2
(cmyPickle
MockLink
p3
c__builtin__
object
p4
Ntp5
Rp6
(dp7
S'stopRect'
p8
csip
_unpickle_type
p9
(S'PyQt4.QtCore'
p10
S'QRectF'
p11
(F20.0
F10.0
F9.0
F9.0
tp12
tp13
Rp14
sS'module'
p15
S'links'
p16
sS'element'
p17
S'Coax'
p18
sS'startElement'
p19
S'1322552587.68'
p20
sS'startRect'
p21
g9
(g10
S'QRectF'
p22
(F0.0
F10.0
F9.0
F9.0
tp23
tp24
Rp25
sS'line'
p26
g9
(g10
S'QLineF'
p27
(F419.5
F110.5
F169.0
F174.0
tp28
tp29
Rp30
sS'stopElement'
p31
S'1322552587.18'
p32
sbsg20
g2
(cmyPickle
MockElement
p33
g4
Ntp34
Rp35
(dp36
S'connections'
p37
(dp38
S'J4'
p39
(lp40
g32
aS'J2'
p41
ag1
aS'P1'
p42
asS'J1'
p43
(lp44
NaNaNaNasg41
(lp45
NaNaNaNasS'J3'
p46
(lp47
NaNaNaNassS'position'
p48
g9
(g10
S'QPoint'
p49
(I429
I191
tp50
tp51
Rp52
sS'entries'
p53
(dp54
S'rd'
p55
S'Test'
p56
sS'blockFromSearch'
p57
I00
sS'id'
p58
S'1322552587.68'
p59
ssg15
S'elements'
p60
sg17
S'Hybrid'
p61
sbsg32
g2
(g33
g4
Ntp62
Rp63
(dp64
g37
(dp65
g39
(lp66
NaNaNaNasg43
(lp67
NaNaNaNasg41
(lp68
g20
ag39
ag1
aS'P2'
p69
asg46
(lp70
NaNaNaNassg48
g9
(g10
S'QPoint'
p71
(I159
I174
tp72
tp73
Rp74
sg53
(dp75
S'rd'
p76
S'A'
p77
sS'blockFromSearch'
p78
I00
sS'id'
p79
S'1322552587.18'
p80
ssg15
g60
sg17
g61
sbsS'1322552612.41'
p81
g2
(g33
g4
Ntp82
Rp83
(dp84
g37
(dp85
g39
(lp86
NaNaNaNasg43
(lp87
NaNaNaNasg41
(lp88
NaNaNaNasg46
(lp89
NaNaNaNassg48
g9
(g10
S'QPoint'
p90
(I667
I246
tp91
tp92
Rp93
sg53
(dp94
S'rd'
p95
S''
p96
sS'blockFromSearch'
p97
I00
sS'id'
p98
g81
ssg15
g60
sg17
g61
sbs.