(dp0
S'1322594972.45'
p1
ccopy_reg
_reconstructor
p2
(cmyPickle
MockLink
p3
c__builtin__
object
p4
Ntp5
Rp6
(dp7
S'stopRect'
p8
csip
_unpickle_type
p9
(S'PyQt4.QtCore'
p10
S'QRectF'
p11
(F20.0
F10.0
F9.0
F9.0
tp12
tp13
Rp14
sS'module'
p15
S'links'
p16
sS'element'
p17
S'Coax'
p18
sS'startElement'
p19
S'1322594955.67'
p20
sS'startRect'
p21
g9
(g10
S'QRectF'
p22
(F10.0
F20.0
F9.0
F9.0
tp23
tp24
Rp25
sS'line'
p26
g9
(g10
S'QLineF'
p27
(F518.0
F303.0
F267.5
F235.5
tp28
tp29
Rp30
sS'stopElement'
p31
S'1322591235.04'
p32
sbsS'1322594768.22'
p33
g2
(cmyPickle
MockElement
p34
g4
Ntp35
Rp36
(dp37
S'connections'
p38
(dp39
S'J4'
p40
(lp41
g32
aS'J3'
p42
aS'1322594975.46'
p43
aS'P2'
p44
asS'J1'
p45
(lp46
S'1322594767.2'
p47
ag42
aS'1322594967.06'
p48
ag44
asS'J2'
p49
(lp50
S'1322594957.19'
p51
aS'J4'
p52
aS'1322594963.44'
p53
ag44
asS'J3'
p54
(lp55
NaNaNaNassS'position'
p56
g9
(g10
S'QPointF'
p57
(F455.6343948103088
F85.63439482970003
tp58
tp59
Rp60
sS'entries'
p61
(dp62
S'rd'
p63
S'C'
p64
sS'blockFromSearch'
p65
I00
sS'id'
p66
S'1322594768.22'
p67
ssg15
S'elements'
p68
sg17
S'Hybrid'
p69
sbsg48
g2
(g3
g4
Ntp70
Rp71
(dp72
g8
g9
(g10
S'QRectF'
p73
(F10.0
F20.0
F9.0
F9.0
tp74
tp75
Rp76
sg15
g16
sg17
g18
sg19
g47
sg21
g9
(g10
S'QRectF'
p77
(F10.0
F0.0
F9.0
F9.0
tp78
tp79
Rp80
sg26
g9
(g10
S'QLineF'
p81
(F447.87813160343626
F202.8781316099
F455.87813160343626
F95.87813160990001
tp82
tp83
Rp84
sg31
g33
sbsg47
g2
(g34
g4
Ntp85
Rp86
(dp87
g38
(dp88
g40
(lp89
NaNaNaNasg45
(lp90
NaNaNaNasg49
(lp91
g20
ag52
aS'1322594969.74'
p92
aS'P1'
p93
asg54
(lp94
g33
aS'J1'
p95
ag48
ag93
assg56
g9
(g10
S'QPointF'
p96
(F447.6343948103088
F212.63439482970003
tp97
tp98
Rp99
sg61
(dp100
S'rd'
p101
S'B'
p102
sS'blockFromSearch'
p103
I00
sS'id'
p104
S'1322594767.2'
p105
ssg15
g68
sg17
g69
sbsg53
g2
(g3
g4
Ntp106
Rp107
(dp108
g8
g9
(g10
S'QRectF'
p109
(F20.0
F10.0
F9.0
F9.0
tp110
tp111
Rp112
sg15
g16
sg17
g18
sg19
g51
sg21
g9
(g10
S'QRectF'
p113
(F0.0
F10.0
F9.0
F9.0
tp114
tp115
Rp116
sg26
g9
(g10
S'QLineF'
p117
(F515.5
F137.5
F465.87813160343626
F85.87813160990001
tp118
tp119
Rp120
sg31
g33
sbsg20
g2
(g34
g4
Ntp121
Rp122
(dp123
g38
(dp124
g52
(lp125
g47
aS'J2'
p126
ag92
ag44
asg95
(lp127
g32
ag126
ag1
ag93
asg126
(lp128
NaNaNaNasg42
(lp129
g51
ag95
aS'1322594961.16'
p130
ag93
assg56
g9
(g10
S'QPointF'
p131
(F517.7562632068725
F292.7562632198001
tp132
tp133
Rp134
sg61
(dp135
S'rd'
p136
S'Test'
p137
sS'blockFromSearch'
p138
I00
sS'id'
p139
S'1322594955.67'
p140
ssg15
g68
sg17
g69
sbsg43
g2
(g3
g4
Ntp141
Rp142
(dp143
g8
g9
(g10
S'QRectF'
p144
(F0.0
F10.0
F9.0
F9.0
tp145
tp146
Rp147
sg15
g16
sg17
g18
sg19
g32
sg21
g9
(g10
S'QRectF'
p148
(F10.0
F0.0
F9.0
F9.0
tp149
tp150
Rp151
sg26
g9
(g10
S'QLineF'
p152
(F257.5
F225.5
F445.87813160343626
F85.87813160990001
tp153
tp154
Rp155
sg31
g33
sbsg92
g2
(g3
g4
Ntp156
Rp157
(dp158
g8
g9
(g10
S'QRectF'
p159
(F0.0
F10.0
F9.0
F9.0
tp160
tp161
Rp162
sg15
g16
sg17
g18
sg19
g47
sg21
g9
(g10
S'QRectF'
p163
(F20.0
F10.0
F9.0
F9.0
tp164
tp165
Rp166
sg26
g9
(g10
S'QLineF'
p167
(F457.87813160343626
F212.8781316099
F508.0
F293.0
tp168
tp169
Rp170
sg31
g20
sbsg130
g2
(g3
g4
Ntp171
Rp172
(dp173
g8
g9
(g10
S'QRectF'
p174
(F10.0
F20.0
F9.0
F9.0
tp175
tp176
Rp177
sg15
g16
sg17
g18
sg19
g20
sg21
g9
(g10
S'QRectF'
p178
(F10.0
F0.0
F9.0
F9.0
tp179
tp180
Rp181
sg26
g9
(g10
S'QLineF'
p182
(F518.0
F283.0
F525.5
F147.5
tp183
tp184
Rp185
sg31
g51
sbsg51
g2
(g34
g4
Ntp186
Rp187
(dp188
g38
(dp189
g52
(lp190
g33
ag126
ag53
ag93
asg95
(lp191
g20
ag42
ag130
ag44
asg126
(lp192
NaNaNaNasg42
(lp193
NaNaNaNassg56
g9
(g10
S'QPointF'
p194
(F525.3781316034363
F137.3781316099
tp195
tp196
Rp197
sg61
(dp198
S'rd'
p199
S'A'
p200
sS'blockFromSearch'
p201
I00
sS'id'
p202
S'1322594957.19'
p203
ssg15
g68
sg17
g69
sbsg32
g2
(g34
g4
Ntp204
Rp205
(dp206
g38
(dp207
S'J4'
p208
(lp209
NaNaNaNasS'J1'
p210
(lp211
NaNaNaNasS'J2'
p212
(lp213
g20
ag95
ag1
ag44
asS'J3'
p214
(lp215
g33
ag52
ag43
ag93
assg56
g9
(g10
S'QPointF'
p216
(F257.37813160343626
F235.3781316099
tp217
tp218
Rp219
sg61
(dp220
S'rd'
p221
S'D'
p222
sS'blockFromSearch'
p223
I00
sS'id'
p224
S'1322591235.04'
p225
ssg15
g68
sg17
g69
sbs.