(dp0
S'1322606145.08'
p1
ccopy_reg
_reconstructor
p2
(cmyPickle
MockLink
p3
c__builtin__
object
p4
Ntp5
Rp6
(dp7
S'stopRect'
p8
csip
_unpickle_type
p9
(S'PyQt4.QtCore'
p10
S'QRectF'
p11
(F20.0
F10.0
F9.0
F9.0
tp12
tp13
Rp14
sS'module'
p15
S'links'
p16
sS'element'
p17
S'Coax'
p18
sS'startElement'
p19
S'1322606018.81'
p20
sS'startRect'
p21
g9
(g10
S'QRectF'
p22
(F0.0
F10.0
F9.0
F9.0
tp23
tp24
Rp25
sS'line'
p26
g9
(g10
S'QLineF'
p27
(F478.87813160343626
F191.8781316099
F332.87813160343626
F208.8781316099
tp28
tp29
Rp30
sS'stopElement'
p31
S'1322606018.0'
p32
sbsg32
g2
(cmyPickle
MockElement
p33
g4
Ntp34
Rp35
(dp36
S'connections'
p37
(dp38
S'J4'
p39
(lp40
NaNaNaNasS'J1'
p41
(lp42
NaNaNaNasS'J2'
p43
(lp44
g20
aS'J4'
p45
ag1
aS'P2'
p46
asS'J3'
p47
(lp48
NaNaNaNassS'position'
p49
g9
(g10
S'QPointF'
p50
(F322.7562632068725
F208.75626321980002
tp51
tp52
Rp53
sS'entries'
p54
(dp55
S'rd'
p56
S'B'
p57
sS'blockFromSearch'
p58
I00
sS'id'
p59
S'1322606018.0'
p60
ssg15
S'elements'
p61
sg17
S'Hybrid'
p62
sbsS'1322606015.25'
p63
g2
(g33
g4
Ntp64
Rp65
(dp66
g37
(dp67
g39
(lp68
NaNaNaNasg41
(lp69
NaNaNaNasg43
(lp70
NaNaNaNasg47
(lp71
NaNaNaNassg49
g9
(g10
S'QPointF'
p72
(F158.75626320687257
F204.75626321980002
tp73
tp74
Rp75
sg54
(dp76
S'rd'
p77
S'A'
p78
sS'blockFromSearch'
p79
I00
sS'id'
p80
S'1322606015.25'
p81
ssg15
g61
sg17
g62
sbsg20
g2
(g33
g4
Ntp82
Rp83
(dp84
g37
(dp85
g39
(lp86
g32
aS'J2'
p87
ag1
aS'P1'
p88
asg41
(lp89
NaNaNaNasg43
(lp90
NaNaNaNasg47
(lp91
NaNaNaNassg49
g9
(g10
S'QPointF'
p92
(F488.7562632068725
F191.75626321980002
tp93
tp94
Rp95
sg54
(dp96
S'rd'
p97
S'C'
p98
sS'blockFromSearch'
p99
I00
sS'id'
p100
S'1322606018.81'
p101
ssg15
g61
sg17
g62
sbs.