(dp0
S'1322518161.32'
p1
ccopy_reg
_reconstructor
p2
(cmyPickle
MockElement
p3
c__builtin__
object
p4
Ntp5
Rp6
(dp7
S'connections'
p8
(dp9
S'J4'
p10
(lp11
S'1322518160.88'
p12
aS'J2'
p13
aS'1322518163.76'
p14
aS'P2'
p15
asS'J1'
p16
(lp17
S'1322518174.13'
p18
aS'J3'
p19
aS'1322518175.84'
p20
aS'P2'
p21
asg13
(lp22
NaNaNaNasS'J3'
p23
(lp24
NaNaNaNassS'position'
p25
csip
_unpickle_type
p26
(S'PyQt4.QtCore'
p27
S'QPointF'
p28
(F308.0
F94.0
tp29
tp30
Rp31
sS'entries'
p32
(dp33
S'rd'
p34
S''
p35
sS'blockFromSearch'
p36
I00
sS'id'
p37
g1
ssS'module'
p38
S'elements'
p39
sS'element'
p40
S'Hybrid'
p41
sbsg12
g2
(g3
g4
Ntp42
Rp43
(dp44
g8
(dp45
g10
(lp46
NaNaNaNasg16
(lp47
g18
aS'J4'
p48
aS'1322518178.54'
p49
ag21
asg13
(lp50
g1
ag10
ag14
aS'P1'
p51
asg23
(lp52
NaNaNaNassg25
g26
(g27
S'QPointF'
p53
(F100.5
F149.5
tp54
tp55
Rp56
sg32
(dp57
S'rd'
p58
g35
sS'blockFromSearch'
p59
I00
sS'id'
p60
S'1322518160.88'
p61
ssg38
g39
sg40
g41
sbsg49
g2
(cmyPickle
MockLink
p62
g4
Ntp63
Rp64
(dp65
S'stopRect'
p66
g26
(g27
S'QRectF'
p67
(F10.0
F20.0
F9.0
F9.0
tp68
tp69
Rp70
sg38
S'links'
p71
sg40
S'Coax'
p72
sS'startElement'
p73
g18
sS'startRect'
p74
g26
(g27
S'QRectF'
p75
(F0.0
F10.0
F9.0
F9.0
tp76
tp77
Rp78
sS'line'
p79
g26
(g27
S'QLineF'
p80
(F312.0
F249.0
F115.0
F174.0
tp81
tp82
Rp83
sS'stopElement'
p84
g12
sbsg18
g2
(g3
g4
Ntp85
Rp86
(dp87
g8
(dp88
g48
(lp89
g12
aS'J1'
p90
ag49
aS'P1'
p91
asg90
(lp92
NaNaNaNasS'J2'
p93
(lp94
NaNaNaNasg19
(lp95
g1
ag90
ag20
ag91
assg25
g26
(g27
S'QPointF'
p96
(F307.5
F234.5
tp97
tp98
Rp99
sg32
(dp100
S'rd'
p101
g35
sS'blockFromSearch'
p102
I00
sS'id'
p103
g18
ssg38
g39
sg40
g41
sbsg20
g2
(g62
g4
Ntp104
Rp105
(dp106
g66
g26
(g27
S'QRectF'
p107
(F10.0
F20.0
F9.0
F9.0
tp108
tp109
Rp110
sg38
g71
sg40
g72
sg73
g18
sg74
g26
(g27
S'QRectF'
p111
(F10.0
F0.0
F9.0
F9.0
tp112
tp113
Rp114
sg79
g26
(g27
S'QLineF'
p115
(F322.0
F239.0
F322.5
F118.5
tp116
tp117
Rp118
sg84
g1
sbsg14
g2
(g62
g4
Ntp119
Rp120
(dp121
g66
g26
(g27
S'QRectF'
p122
(F0.0
F10.0
F9.0
F9.0
tp123
tp124
Rp125
sg38
g71
sg40
S'Coax'
p126
sg73
g12
sg74
g26
(g27
S'QRectF'
p127
(F20.0
F10.0
F9.0
F9.0
tp128
tp129
Rp130
sg79
g26
(g27
S'QLineF'
p131
(F125.0
F164.0
F312.5
F108.5
tp132
tp133
Rp134
sg84
g1
sbs.