(dp0
S'1322541029.36'
p1
ccopy_reg
_reconstructor
p2
(cmyPickle
MockElement
p3
c__builtin__
object
p4
Ntp5
Rp6
(dp7
S'connections'
p8
(dp9
S'J4'
p10
(lp11
S'1322541016.38'
p12
aS'J2'
p13
aS'1322541034.21'
p14
aS'P2'
p15
asS'J1'
p16
(lp17
NaNaNaNasg13
(lp18
NaNaNaNasS'J3'
p19
(lp20
NaNaNaNassS'position'
p21
csip
_unpickle_type
p22
(S'PyQt4.QtCore'
p23
S'QPointF'
p24
(F455.5
F127.5
tp25
tp26
Rp27
sS'entries'
p28
(dp29
S'rd'
p30
S''
p31
sS'blockFromSearch'
p32
I00
sS'id'
p33
S'1322541029.36'
p34
ssS'module'
p35
S'elements'
p36
sS'element'
p37
S'Hybrid'
p38
sbsg14
g2
(cmyPickle
MockLink
p39
g4
Ntp40
Rp41
(dp42
S'stopRect'
p43
g22
(g23
S'QRectF'
p44
(F0.0
F10.0
F9.0
F9.0
tp45
tp46
Rp47
sg35
S'links'
p48
sg37
S'Coax'
p49
sS'startElement'
p50
g12
sS'startRect'
p51
g22
(g23
S'QRectF'
p52
(F20.0
F10.0
F9.0
F9.0
tp53
tp54
Rp55
sS'line'
p56
g22
(g23
S'QLineF'
p57
(F259.0
F136.0
F460.0
F142.0
tp58
tp59
Rp60
sS'stopElement'
p61
g1
sbsg12
g2
(g3
g4
Ntp62
Rp63
(dp64
g8
(dp65
g10
(lp66
NaNaNaNasg16
(lp67
NaNaNaNasg13
(lp68
g1
ag10
ag14
aS'P1'
p69
asg19
(lp70
NaNaNaNassg21
g22
(g23
S'QPointF'
p71
(F234.5
F121.5
tp72
tp73
Rp74
sg28
(dp75
S'rd'
p76
g31
sS'blockFromSearch'
p77
I00
sS'id'
p78
S'1322541016.38'
p79
ssg35
g36
sg37
g38
sbs.