(dp0
S'1322597894.64'
p1
ccopy_reg
_reconstructor
p2
(cmyPickle
MockLink
p3
c__builtin__
object
p4
Ntp5
Rp6
(dp7
S'stopRect'
p8
csip
_unpickle_type
p9
(S'PyQt4.QtCore'
p10
S'QRectF'
p11
(F0.0
F10.0
F9.0
F9.0
tp12
tp13
Rp14
sS'module'
p15
S'links'
p16
sS'element'
p17
S'Coax'
p18
sS'startElement'
p19
S'1322597891.13'
p20
sS'startRect'
p21
g9
(g10
S'QRectF'
p22
(F20.0
F10.0
F9.0
F9.0
tp23
tp24
Rp25
sS'line'
p26
g9
(g10
S'QLineF'
p27
(F259.0
F163.0
F456.0
F158.0
tp28
tp29
Rp30
sS'stopElement'
p31
S'1322597891.73'
p32
sbsg20
g2
(cmyPickle
MockElement
p33
g4
Ntp34
Rp35
(dp36
S'connections'
p37
(dp38
S'J4'
p39
(lp40
NaNaNaNasS'J1'
p41
(lp42
NaNaNaNasS'J2'
p43
(lp44
g32
ag39
ag1
aS'P1'
p45
asS'J3'
p46
(lp47
NaNaNaNassS'position'
p48
g9
(g10
S'QPointF'
p49
(F248.8781316034363
F162.8781316099
tp50
tp51
Rp52
sS'entries'
p53
(dp54
S'rd'
p55
S''
p56
sS'blockFromSearch'
p57
I00
sS'id'
p58
S'1322597891.13'
p59
ssg15
S'elements'
p60
sg17
S'Hybrid'
p61
sbsg32
g2
(g33
g4
Ntp62
Rp63
(dp64
g37
(dp65
g39
(lp66
g20
ag43
ag1
aS'P2'
p67
asg41
(lp68
NaNaNaNasg43
(lp69
NaNaNaNasg46
(lp70
NaNaNaNassg48
g9
(g10
S'QPointF'
p71
(F465.97633134
F157.97633280500008
tp72
tp73
Rp74
sg53
(dp75
S'rd'
p76
g56
sS'blockFromSearch'
p77
I00
sS'id'
p78
g32
ssg15
g60
sg17
g61
sbs.