(dp0
S'1323304268.32'
p1
ccopy_reg
_reconstructor
p2
(cmyPickle
MockElement
p3
c__builtin__
object
p4
Ntp5
Rp6
(dp7
S'connections'
p8
(dp9
S'J4'
p10
(lp11
NaNaNaNasS'J1'
p12
(lp13
S'1323304268.82'
p14
ag10
aS'1323304273.76'
p15
aS'P1'
p16
asS'J2'
p17
(lp18
NaNaNaNasS'J3'
p19
(lp20
NaNaNaNassS'position'
p21
csip
_unpickle_type
p22
(S'PyQt4.QtCore'
p23
S'QPointF'
p24
(F237.8781316034363
F79.87813160990001
tp25
tp26
Rp27
sS'entries'
p28
(dp29
S'rd'
p30
S'xxx'
p31
sS'blockFromSearch'
p32
I00
sS'id'
p33
S'1323304268.32'
p34
ssS'module'
p35
S'elements'
p36
sS'element'
p37
S'Hybrid'
p38
sbsS'1323304269.31'
p39
g2
(g3
g4
Ntp40
Rp41
(dp42
g8
(dp43
g10
(lp44
g14
ag17
aS'1323304276.9'
p45
aS'P2'
p46
asg12
(lp47
NaNaNaNasg17
(lp48
S'1323304269.77'
p49
ag10
aS'1323304280.18'
p50
ag16
asg19
(lp51
NaNaNaNassg21
g22
(g23
S'QPointF'
p52
(F514.8781316034363
F224.8781316099
tp53
tp54
Rp55
sg28
(dp56
S'rd'
p57
S'xxx'
p58
sS'blockFromSearch'
p59
I00
sS'id'
p60
S'1323304269.31'
p61
ssg35
g36
sg37
g38
sbsg15
g2
(cmyPickle
MockLink
p62
g4
Ntp63
Rp64
(dp65
S'stopRect'
p66
g22
(g23
S'QRectF'
p67
(F0.0
F10.0
F9.0
F9.0
tp68
tp69
Rp70
sg35
S'links'
p71
sg37
S'Coax'
p72
sS'startElement'
p73
g1
sS'startRect'
p74
g22
(g23
S'QRectF'
p75
(F10.0
F20.0
F9.0
F9.0
tp76
tp77
Rp78
sS'line'
p79
g22
(g23
S'QLineF'
p80
(F238.0
F90.0
F327.0
F219.0
tp81
tp82
Rp83
sS'stopElement'
p84
g14
sbsg50
g2
(g62
g4
Ntp85
Rp86
(dp87
g66
g22
(g23
S'QRectF'
p88
(F0.0
F10.0
F9.0
F9.0
tp89
tp90
Rp91
sg35
g71
sg37
g72
sg73
g39
sg74
g22
(g23
S'QRectF'
p92
(F20.0
F10.0
F9.0
F9.0
tp93
tp94
Rp95
sg79
g22
(g23
S'QLineF'
p96
(F525.0
F225.0
F629.0
F170.0
tp97
tp98
Rp99
sg84
g49
sbsg14
g2
(g3
g4
Ntp100
Rp101
(dp102
g8
(dp103
g10
(lp104
g1
ag12
ag15
ag46
asg12
(lp105
NaNaNaNasg17
(lp106
g39
ag10
ag45
ag16
asg19
(lp107
NaNaNaNassg21
g22
(g23
S'QPointF'
p108
(F336.87813160343626
F218.8781316099
tp109
tp110
Rp111
sg28
(dp112
S'rd'
p113
S'xxx'
p114
sS'blockFromSearch'
p115
I00
sS'id'
p116
S'1323304268.82'
p117
ssg35
g36
sg37
g38
sbsg49
g2
(g3
g4
Ntp118
Rp119
(dp120
g8
(dp121
g10
(lp122
g39
ag17
ag50
ag46
asg12
(lp123
NaNaNaNasg17
(lp124
NaNaNaNasg19
(lp125
NaNaNaNassg21
g22
(g23
S'QPointF'
p126
(F638.8781316034363
F169.8781316099
tp127
tp128
Rp129
sg28
(dp130
S'rd'
p131
S'C'
p132
sS'blockFromSearch'
p133
I00
sS'id'
p134
S'1323304269.77'
p135
ssg35
g36
sg37
g38
sbsg45
g2
(g62
g4
Ntp136
Rp137
(dp138
g66
g22
(g23
S'QRectF'
p139
(F0.0
F10.0
F9.0
F9.0
tp140
tp141
Rp142
sg35
g71
sg37
g72
sg73
g14
sg74
g22
(g23
S'QRectF'
p143
(F20.0
F10.0
F9.0
F9.0
tp144
tp145
Rp146
sg79
g22
(g23
S'QLineF'
p147
(F347.0
F219.0
F505.0
F225.0
tp148
tp149
Rp150
sg84
g39
sbs.