(dp0
S'1323453461.24'
p1
ccopy_reg
_reconstructor
p2
(cmyPickle
MockElement
p3
c__builtin__
object
p4
Ntp5
Rp6
(dp7
S'connections'
p8
(dp9
S'J4'
p10
(lp11
NaNaNaNasS'J1'
p12
(lp13
NaNaNaNasS'J2'
p14
(lp15
S'1323453462.26'
p16
ag10
aS'1323453467.04'
p17
aS'P1'
p18
asS'J3'
p19
(lp20
NaNaNaNassS'position'
p21
csip
_unpickle_type
p22
(S'PyQt4.QtCore'
p23
S'QPointF'
p24
(F20.378131603436287
F137.3781316034363
tp25
tp26
Rp27
sS'entries'
p28
(dp29
S'rd'
p30
S'A'
p31
sS'blockFromSearch'
p32
I00
sS'id'
p33
S'1323453461.24'
p34
ssS'module'
p35
S'elements'
p36
sS'element'
p37
S'Hybrid'
p38
sbsg17
g2
(cmyPickle
MockLink
p39
g4
Ntp40
Rp41
(dp42
S'stopRect'
p43
g22
(g23
S'QRectF'
p44
(F0.0
F10.0
F9.0
F9.0
tp45
tp46
Rp47
sg35
S'links'
p48
sg37
S'Coax'
p49
sS'startElement'
p50
g1
sS'startRect'
p51
g22
(g23
S'QRectF'
p52
(F20.0
F10.0
F9.0
F9.0
tp53
tp54
Rp55
sS'line'
p56
g22
(g23
S'QLineF'
p57
(F30.5
F137.5
F171.5
F144.5
tp58
tp59
Rp60
sS'stopElement'
p61
g16
sbsS'1323453472.96'
p62
g2
(g39
g4
Ntp63
Rp64
(dp65
g43
g22
(g23
S'QRectF'
p66
(F0.0
F10.0
F9.0
F9.0
tp67
tp68
Rp69
sg35
g48
sg37
g49
sg50
S'1323453462.87'
p70
sg51
g22
(g23
S'QRectF'
p71
(F20.0
F10.0
F9.0
F9.0
tp72
tp73
Rp74
sg56
g22
(g23
S'QLineF'
p75
(F355.5
F141.5
F442.5
F141.5
tp76
tp77
Rp78
sg61
S'1323453463.32'
p79
sbsg79
g2
(g3
g4
Ntp80
Rp81
(dp82
g8
(dp83
g10
(lp84
g70
ag14
ag62
aS'P2'
p85
asg12
(lp86
NaNaNaNasg14
(lp87
S'1323453463.85'
p88
ag10
aS'1323453474.92'
p89
ag18
asg19
(lp90
NaNaNaNassg21
g22
(g23
S'QPointF'
p91
(F452.37813160343626
F141.3781316034363
tp92
tp93
Rp94
sg28
(dp95
S'rd'
p96
S'D'
p97
sS'blockFromSearch'
p98
I00
sS'id'
p99
S'1323453463.32'
p100
ssg35
g36
sg37
g38
sbsg88
g2
(g3
g4
Ntp101
Rp102
(dp103
g8
(dp104
g10
(lp105
g79
ag14
ag89
ag85
asg12
(lp106
NaNaNaNasg14
(lp107
NaNaNaNasg19
(lp108
NaNaNaNassg21
g22
(g23
S'QPointF'
p109
(F570.3781316034363
F137.3781316034363
tp110
tp111
Rp112
sg28
(dp113
S'rd'
p114
S'E'
p115
sS'blockFromSearch'
p116
I00
sS'id'
p117
S'1323453463.85'
p118
ssg35
g36
sg37
g38
sbsS'1323453471.18'
p119
g2
(g39
g4
Ntp120
Rp121
(dp122
g43
g22
(g23
S'QRectF'
p123
(F0.0
F10.0
F9.0
F9.0
tp124
tp125
Rp126
sg35
g48
sg37
g49
sg50
g16
sg51
g22
(g23
S'QRectF'
p127
(F20.0
F10.0
F9.0
F9.0
tp128
tp129
Rp130
sg56
g22
(g23
S'QLineF'
p131
(F191.5
F144.5
F335.5
F141.5
tp132
tp133
Rp134
sg61
g70
sbsg89
g2
(g39
g4
Ntp135
Rp136
(dp137
g43
g22
(g23
S'QRectF'
p138
(F0.0
F10.0
F9.0
F9.0
tp139
tp140
Rp141
sg35
g48
sg37
g49
sg50
g79
sg51
g22
(g23
S'QRectF'
p142
(F20.0
F10.0
F9.0
F9.0
tp143
tp144
Rp145
sg56
g22
(g23
S'QLineF'
p146
(F462.5
F141.5
F560.5
F137.5
tp147
tp148
Rp149
sg61
g88
sbsg16
g2
(g3
g4
Ntp150
Rp151
(dp152
g8
(dp153
g10
(lp154
g1
ag14
ag17
ag85
asg12
(lp155
NaNaNaNasg14
(lp156
g70
ag10
ag119
ag18
asg19
(lp157
NaNaNaNassg21
g22
(g23
S'QPointF'
p158
(F181.3781316034363
F144.3781316034363
tp159
tp160
Rp161
sg28
(dp162
S'rd'
p163
S'B'
p164
sS'blockFromSearch'
p165
I00
sS'id'
p166
S'1323453462.26'
p167
ssg35
g36
sg37
g38
sbsg70
g2
(g3
g4
Ntp168
Rp169
(dp170
g8
(dp171
g10
(lp172
g16
ag14
ag119
ag85
asg12
(lp173
NaNaNaNasg14
(lp174
g79
ag10
ag62
ag18
asg19
(lp175
NaNaNaNassg21
g22
(g23
S'QPointF'
p176
(F345.37813160343626
F141.3781316034363
tp177
tp178
Rp179
sg28
(dp180
S'rd'
p181
S'C'
p182
sS'blockFromSearch'
p183
I00
sS'id'
p184
S'1323453462.87'
p185
ssg35
g36
sg37
g38
sbs.